; Function Attrs: mustprogress uwtable
define noundef double @_ZNK8QuantLib20FixedLocalVolSurface9maxStrikeEv(ptr nocapture noundef nonnull readonly align 8 dereferenceable(176) %this) unnamed_addr #6 align 2 {
entry:
  %_M_finish.i.i = getelementptr inbounds nuw i8, ptr %this, i64 128
  %0 = load ptr, ptr %_M_finish.i.i, align 8, !tbaa !3
  %add.ptr.i.i = getelementptr inbounds i8, ptr %0, i64 -16
  %1 = load ptr, ptr %add.ptr.i.i, align 8, !tbaa !54
  %cmp.not.i = icmp eq ptr %1, null
  br i1 %cmp.not.i, label %cond.false.i, label %_ZNK5boost10shared_ptrISt6vectorIdSaIdEEEptEv.exit, !prof !102

cond.false.i:                                     ; preds = %entry
  tail call void @_ZN5boost16assertion_failedEPKcS1_S1_l(ptr noundef nonnull @.str.12, ptr noundef nonnull @__PRETTY_FUNCTION__._ZNK5boost10shared_ptrISt6vectorIdSaIdEEEptEv, ptr noundef nonnull @.str.13, i64 noundef 784)
  %.pre.i = load ptr, ptr %add.ptr.i.i, align 8, !tbaa !54
  br label %_ZNK5boost10shared_ptrISt6vectorIdSaIdEEEptEv.exit

_ZNK5boost10shared_ptrISt6vectorIdSaIdEEEptEv.exit: ; preds = %entry, %cond.false.i
  %2 = phi ptr [ %1, %entry ], [ %.pre.i, %cond.false.i ]
  %_M_finish.i.i1 = getelementptr inbounds nuw i8, ptr %2, i64 8
  %3 = load ptr, ptr %_M_finish.i.i1, align 8, !tbaa !3
  %add.ptr.i.i2 = getelementptr inbounds i8, ptr %3, i64 -8
  %4 = load double, ptr %add.ptr.i.i2, align 8, !tbaa !86
  ret double %4
}